target datalayout = "e-m:e-p270:32:32-p271:32:32-p272:64:64-i64:64-i128:128-f80:128-n8:16:32:64-S128"
target triple = "x86_64-pc-linux-gnu"

%"class.std::__cxx11::basic_string" = type { %"struct.std::__cxx11::basic_string<char>::_Alloc_hider", i64, %union.anon }
%"struct.std::__cxx11::basic_string<char>::_Alloc_hider" = type { ptr }
%union.anon = type { i64, [8 x i8] }
%"class.llvm::StringRef" = type { ptr, i64 }
%"class.std::allocator" = type { i8 }
%"struct.std::_Rb_tree_header" = type { %"struct.std::_Rb_tree_node_base", i64 }
%"struct.std::_Rb_tree_node_base" = type { i32, ptr, ptr, ptr }
%"struct.llvm::LaneBitmask" = type { i64 }
%"class.llvm::SmallVectorBase" = type { ptr, i32, i32 }
%"class.llvm::Twine" = type <{ %"union.llvm::Twine::Child", %"union.llvm::Twine::Child", i8, i8, [6 x i8] }>
%"union.llvm::Twine::Child" = type { %struct.anon }
%struct.anon = type { ptr, i64 }
%"class.std::vector.170" = type { %"struct.std::_Vector_base.171" }
%"struct.std::_Vector_base.171" = type { %"struct.std::_Vector_base<const llvm::CodeGenRegister *, std::allocator<const llvm::CodeGenRegister *>>::_Vector_impl" }
%"struct.std::_Vector_base<const llvm::CodeGenRegister *, std::allocator<const llvm::CodeGenRegister *>>::_Vector_impl" = type { %"struct.std::_Vector_base<const llvm::CodeGenRegister *, std::allocator<const llvm::CodeGenRegister *>>::_Vector_impl_data" }
%"struct.std::_Vector_base<const llvm::CodeGenRegister *, std::allocator<const llvm::CodeGenRegister *>>::_Vector_impl_data" = type { ptr, ptr, ptr }
%"struct.llvm::RegSizeInfoByHwMode" = type { %"struct.llvm::InfoByHwMode.257" }
%"struct.llvm::InfoByHwMode.257" = type { %"class.std::map.258" }
%"class.std::map.258" = type { %"class.std::_Rb_tree.259" }
%"class.std::_Rb_tree.259" = type { %"struct.std::_Rb_tree<unsigned int, std::pair<const unsigned int, llvm::RegSizeInfo>, std::_Select1st<std::pair<const unsigned int, llvm::RegSizeInfo>>, std::less<unsigned int>>::_Rb_tree_impl" }
%"struct.std::_Rb_tree<unsigned int, std::pair<const unsigned int, llvm::RegSizeInfo>, std::_Select1st<std::pair<const unsigned int, llvm::RegSizeInfo>>, std::less<unsigned int>>::_Rb_tree_impl" = type { [8 x i8], %"struct.std::_Rb_tree_header" }
%"class.llvm::CodeGenRegisterClass" = type <{ %"class.std::vector.170", %"class.std::vector.231", %"class.llvm::BitVector", %"class.llvm::SmallVector.241", ptr, %"class.std::__cxx11::basic_string", %"class.llvm::DenseMap.246", %"class.llvm::DenseMap.249", %"class.llvm::BitVector", i32, [4 x i8], %"class.llvm::StringRef", %"class.llvm::SmallVector.252", %"struct.llvm::RegSizeInfoByHwMode", i32, i8, [3 x i8], %"class.llvm::StringRef", i8, i8, i8, [5 x i8], %"struct.llvm::LaneBitmask", i8, i8, i8, i8, [4 x i8] }>
%"class.std::vector.231" = type { %"struct.std::_Vector_base.232" }
%"struct.std::_Vector_base.232" = type { %"struct.std::_Vector_base<llvm::SmallVector<llvm::Record *, 16>, std::allocator<llvm::SmallVector<llvm::Record *, 16>>>::_Vector_impl" }
%"struct.std::_Vector_base<llvm::SmallVector<llvm::Record *, 16>, std::allocator<llvm::SmallVector<llvm::Record *, 16>>>::_Vector_impl" = type { %"struct.std::_Vector_base<llvm::SmallVector<llvm::Record *, 16>, std::allocator<llvm::SmallVector<llvm::Record *, 16>>>::_Vector_impl_data" }
%"struct.std::_Vector_base<llvm::SmallVector<llvm::Record *, 16>, std::allocator<llvm::SmallVector<llvm::Record *, 16>>>::_Vector_impl_data" = type { ptr, ptr, ptr }
%"class.llvm::SmallVector.241" = type { %"class.llvm::SmallVectorImpl.242", %"struct.llvm::SmallVectorStorage.245" }
%"class.llvm::SmallVectorImpl.242" = type { %"class.llvm::SmallVectorTemplateBase.243" }
%"class.llvm::SmallVectorTemplateBase.243" = type { %"class.llvm::SmallVectorTemplateCommon.244" }
%"class.llvm::SmallVectorTemplateCommon.244" = type { %"class.llvm::SmallVectorBase" }
%"struct.llvm::SmallVectorStorage.245" = type { [32 x i8] }
%"class.llvm::DenseMap.246" = type <{ ptr, i32, i32, i32, [4 x i8] }>
%"class.llvm::DenseMap.249" = type <{ ptr, i32, i32, i32, [4 x i8] }>
%"class.llvm::BitVector" = type <{ %"class.llvm::SmallVector.236", i32, [4 x i8] }>
%"class.llvm::SmallVector.236" = type { %"class.llvm::SmallVectorImpl.237", %"struct.llvm::SmallVectorStorage.240" }
%"class.llvm::SmallVectorImpl.237" = type { %"class.llvm::SmallVectorTemplateBase.238" }
%"class.llvm::SmallVectorTemplateBase.238" = type { %"class.llvm::SmallVectorTemplateCommon.239" }
%"class.llvm::SmallVectorTemplateCommon.239" = type { %"class.llvm::SmallVectorBase" }
%"struct.llvm::SmallVectorStorage.240" = type { [48 x i8] }
%"class.llvm::SmallVector.252" = type { %"class.llvm::SmallVectorImpl.253", %"struct.llvm::SmallVectorStorage.256" }
%"class.llvm::SmallVectorImpl.253" = type { %"class.llvm::SmallVectorTemplateBase.254" }
%"class.llvm::SmallVectorTemplateBase.254" = type { %"class.llvm::SmallVectorTemplateCommon.255" }
%"class.llvm::SmallVectorTemplateCommon.255" = type { %"class.llvm::SmallVectorBase" }
%"struct.llvm::SmallVectorStorage.256" = type { [224 x i8] }

@.str.2 = private unnamed_addr constant [3 x i8] c"::\00", align 1
@.str.48 = private unnamed_addr constant [1 x i8] zeroinitializer, align 1
@.str.73 = private unnamed_addr constant [50 x i8] c"basic_string: construction from null is not valid\00", align 1

; Function Attrs: mustprogress nounwind uwtable
define linkonce_odr hidden noundef i64 @_ZNK4llvm9StringRef4sizeEv(ptr noundef nonnull align 8 dereferenceable(16) %0) #0 comdat align 2 {
  %2 = alloca ptr, align 8
  store ptr %0, ptr %2, align 8
  %3 = load ptr, ptr %2, align 8
  %4 = getelementptr inbounds nuw %"class.llvm::StringRef", ptr %3, i32 0, i32 1
  %5 = load i64, ptr %4, align 8
  ret i64 %5
}

; Function Attrs: mustprogress nounwind uwtable
define linkonce_odr hidden noundef ptr @_ZNK4llvm9StringRef4dataEv(ptr noundef nonnull align 8 dereferenceable(16) %0) #0 comdat align 2 {
  %2 = alloca ptr, align 8
  store ptr %0, ptr %2, align 8
  %3 = load ptr, ptr %2, align 8
  %4 = getelementptr inbounds nuw %"class.llvm::StringRef", ptr %3, i32 0, i32 0
  %5 = load ptr, ptr %4, align 8
  ret ptr %5
}

; Function Attrs: mustprogress nounwind uwtable
define linkonce_odr hidden void @_ZN4llvm5TwineC2ERKNS_9StringRefEPKc(ptr noundef nonnull align 8 dereferenceable(34) %0, ptr noundef nonnull align 8 dereferenceable(16) %1, ptr noundef %2) unnamed_addr #0 comdat align 2 {
  %4 = alloca ptr, align 8
  %5 = alloca ptr, align 8
  %6 = alloca ptr, align 8
  store ptr %0, ptr %4, align 8
  store ptr %1, ptr %5, align 8
  store ptr %2, ptr %6, align 8
  %7 = load ptr, ptr %4, align 8
  %8 = getelementptr inbounds nuw %"class.llvm::Twine", ptr %7, i32 0, i32 2
  store i8 5, ptr %8, align 8
  %9 = getelementptr inbounds nuw %"class.llvm::Twine", ptr %7, i32 0, i32 3
  store i8 3, ptr %9, align 1
  %10 = load ptr, ptr %5, align 8
  %11 = call noundef ptr @_ZNK4llvm9StringRef4dataEv(ptr noundef nonnull align 8 dereferenceable(16) %10)
  %12 = getelementptr inbounds nuw %"class.llvm::Twine", ptr %7, i32 0, i32 0
  %13 = getelementptr inbounds nuw %struct.anon, ptr %12, i32 0, i32 0
  store ptr %11, ptr %13, align 8
  %14 = load ptr, ptr %5, align 8
  %15 = call noundef i64 @_ZNK4llvm9StringRef4sizeEv(ptr noundef nonnull align 8 dereferenceable(16) %14)
  %16 = getelementptr inbounds nuw %"class.llvm::Twine", ptr %7, i32 0, i32 0
  %17 = getelementptr inbounds nuw %struct.anon, ptr %16, i32 0, i32 1
  store i64 %15, ptr %17, align 8
  %18 = load ptr, ptr %6, align 8
  %19 = getelementptr inbounds nuw %"class.llvm::Twine", ptr %7, i32 0, i32 1
  store ptr %18, ptr %19, align 8
  ret void
}

; Function Attrs: mustprogress nounwind uwtable
define linkonce_odr hidden noundef i64 @_ZNSt11char_traitsIcE6lengthEPKc(ptr noundef %0) #0 comdat align 2 {
  %2 = alloca ptr, align 8
  store ptr %0, ptr %2, align 8
  %3 = load ptr, ptr %2, align 8
  %4 = call i64 @strlen(ptr noundef %3) #6
  ret i64 %4
}

; Function Attrs: mustprogress nounwind uwtable
define linkonce_odr hidden void @_ZN4llvmplERKNS_9StringRefEPKc(ptr dead_on_unwind noalias writable sret(%"class.llvm::Twine") align 8 %0, ptr noundef nonnull align 8 dereferenceable(16) %1, ptr noundef %2) #0 comdat {
  %4 = alloca ptr, align 8
  %5 = alloca ptr, align 8
  store ptr %1, ptr %4, align 8
  store ptr %2, ptr %5, align 8
  %6 = load ptr, ptr %4, align 8
  %7 = load ptr, ptr %5, align 8
  call void @_ZN4llvm5TwineC2ERKNS_9StringRefEPKc(ptr noundef nonnull align 8 dereferenceable(34) %0, ptr noundef nonnull align 8 dereferenceable(16) %6, ptr noundef %7)
  ret void
}

; Function Attrs: mustprogress nounwind uwtable
define linkonce_odr hidden void @_ZNSt7__cxx1112basic_stringIcSt11char_traitsIcESaIcEEC2IS3_EEPKcRKS3_(ptr noundef nonnull align 8 dereferenceable(32) %0, ptr noundef %1, ptr noundef nonnull align 1 dereferenceable(1) %2) unnamed_addr #0 comdat align 2 {
  %4 = alloca ptr, align 8
  %5 = alloca ptr, align 8
  %6 = alloca ptr, align 8
  %7 = alloca ptr, align 8
  store ptr %0, ptr %4, align 8
  store ptr %1, ptr %5, align 8
  store ptr %2, ptr %6, align 8
  %8 = load ptr, ptr %4, align 8
  %9 = getelementptr inbounds nuw %"class.std::__cxx11::basic_string", ptr %8, i32 0, i32 0
  %10 = call noundef ptr @_ZNSt7__cxx1112basic_stringIcSt11char_traitsIcESaIcEE13_M_local_dataEv(ptr noundef nonnull align 8 dereferenceable(32) %8)
  %11 = load ptr, ptr %6, align 8
  call void @_ZNSt7__cxx1112basic_stringIcSt11char_traitsIcESaIcEE12_Alloc_hiderC1EPcRKS3_(ptr noundef nonnull align 8 dereferenceable(8) %9, ptr noundef %10, ptr noundef nonnull align 1 dereferenceable(1) %11)
  %12 = load ptr, ptr %5, align 8
  %13 = icmp eq ptr %12, null
  br i1 %13, label %14, label %15

14:                                               ; preds = %3
  call void @_ZSt19__throw_logic_errorPKc(ptr noundef @.str.73) #15
  unreachable

15:                                               ; preds = %3
  %16 = load ptr, ptr %5, align 8
  %17 = load ptr, ptr %5, align 8
  %18 = call noundef i64 @_ZNSt11char_traitsIcE6lengthEPKc(ptr noundef %17)
  %19 = getelementptr inbounds i8, ptr %16, i64 %18
  store ptr %19, ptr %7, align 8
  %20 = load ptr, ptr %5, align 8
  %21 = load ptr, ptr %7, align 8
  call void @_ZNSt7__cxx1112basic_stringIcSt11char_traitsIcESaIcEE12_M_constructIPKcEEvT_S8_St20forward_iterator_tag(ptr noundef nonnull align 8 dereferenceable(32) %8, ptr noundef %20, ptr noundef %21)
  ret void
}

; Function Attrs: mustprogress nounwind uwtable
define linkonce_odr hidden noundef zeroext i1 @_ZNK4llvm9StringRef5emptyEv(ptr noundef nonnull align 8 dereferenceable(16) %0) #0 comdat align 2 {
  %2 = alloca ptr, align 8
  store ptr %0, ptr %2, align 8
  %3 = load ptr, ptr %2, align 8
  %4 = getelementptr inbounds nuw %"class.llvm::StringRef", ptr %3, i32 0, i32 1
  %5 = load i64, ptr %4, align 8
  %6 = icmp eq i64 %5, 0
  ret i1 %6
}

; Function Attrs: mustprogress nounwind uwtable
define dso_local void @_ZNK4llvm20CodeGenRegisterClass25getNamespaceQualificationB5cxx11Ev(ptr dead_on_unwind noalias writable sret(%"class.std::__cxx11::basic_string") align 8 %0, ptr noundef nonnull align 8 dereferenceable(684) %1) #0 align 2 {
  %3 = alloca ptr, align 8
  %4 = alloca ptr, align 8
  %5 = alloca %"class.std::allocator", align 1
  %6 = alloca i1, align 1
  %7 = alloca %"class.llvm::Twine", align 8
  store ptr %0, ptr %3, align 8
  store ptr %1, ptr %4, align 8
  %8 = load ptr, ptr %4, align 8
  %9 = getelementptr inbounds nuw %"class.llvm::CodeGenRegisterClass", ptr %8, i32 0, i32 11
  %10 = call noundef zeroext i1 @_ZNK4llvm9StringRef5emptyEv(ptr noundef nonnull align 8 dereferenceable(16) %9)
  store i1 false, ptr %6, align 1
  br i1 %10, label %11, label %12

11:                                               ; preds = %2
  call void @_ZNSaIcEC1Ev(ptr noundef nonnull align 1 dereferenceable(1) %5) #6
  store i1 true, ptr %6, align 1
  call void @_ZNSt7__cxx1112basic_stringIcSt11char_traitsIcESaIcEEC2IS3_EEPKcRKS3_(ptr noundef nonnull align 8 dereferenceable(32) %0, ptr noundef @.str.48, ptr noundef nonnull align 1 dereferenceable(1) %5)
  br label %14

12:                                               ; preds = %2
  %13 = getelementptr inbounds nuw %"class.llvm::CodeGenRegisterClass", ptr %8, i32 0, i32 11
  call void @_ZN4llvmplERKNS_9StringRefEPKc(ptr dead_on_unwind writable sret(%"class.llvm::Twine") align 8 %7, ptr noundef nonnull align 8 dereferenceable(16) %13, ptr noundef @.str.2)
  call void @_ZNK4llvm5Twine3strB5cxx11Ev(ptr dead_on_unwind writable sret(%"class.std::__cxx11::basic_string") align 8 %0, ptr noundef nonnull align 8 dereferenceable(34) %7)
  br label %14

14:                                               ; preds = %12, %11
  %15 = load i1, ptr %6, align 1
  br i1 %15, label %16, label %17

16:                                               ; preds = %14
  call void @_ZNSaIcED1Ev(ptr noundef nonnull align 1 dereferenceable(1) %5) #6
  br label %17

17:                                               ; preds = %16, %14
  ret void
}