; Function Attrs: mustprogress nounwind uwtable
define dso_local void @_ZNK4llvm20CodeGenRegisterClass25getNamespaceQualificationB5cxx11Ev(ptr dead_on_unwind noalias writable sret(%"class.std::__cxx11::basic_string") align 8 %0, ptr nocapture noundef nonnull readonly align 8 dereferenceable(684) %1) local_unnamed_addr #0 align 2 {
  %3 = alloca %"class.std::allocator", align 1
  %4 = alloca %"class.llvm::Twine", align 8
  %5 = getelementptr inbounds i8, ptr %1, i64 344
  %6 = load i64, ptr %5, align 8
  %7 = icmp eq i64 %6, 0
  br i1 %7, label %15, label %8

8:                                                ; preds = %2
  %9 = getelementptr inbounds nuw i8, ptr %1, i64 336
  tail call void @llvm.experimental.noalias.scope.decl(metadata !138)
  %10 = getelementptr inbounds nuw i8, ptr %4, i64 32
  store i8 5, ptr %10, align 8, !alias.scope !138
  %11 = getelementptr inbounds nuw i8, ptr %4, i64 33
  store i8 3, ptr %11, align 1, !alias.scope !138
  %12 = load ptr, ptr %9, align 8, !noalias !138
  store ptr %12, ptr %4, align 8, !alias.scope !138
  %13 = getelementptr inbounds nuw i8, ptr %4, i64 8
  store i64 %6, ptr %13, align 8, !alias.scope !138
  %14 = getelementptr inbounds nuw i8, ptr %4, i64 16
  store ptr @.str.2, ptr %14, align 8, !alias.scope !138
  call void @_ZNK4llvm5Twine3strB5cxx11Ev(ptr dead_on_unwind writable sret(%"class.std::__cxx11::basic_string") align 8 %0, ptr noundef nonnull align 8 dereferenceable(34) %4) #25
  br label %17

15:                                               ; preds = %2
  call void @_ZNSaIcEC1Ev(ptr noundef nonnull align 1 dereferenceable(1) %3) #25
  %16 = call noundef ptr @_ZNSt7__cxx1112basic_stringIcSt11char_traitsIcESaIcEE13_M_local_dataEv(ptr noundef nonnull align 8 dereferenceable(32) %0) #25
  call void @_ZNSt7__cxx1112basic_stringIcSt11char_traitsIcESaIcEE12_Alloc_hiderC1EPcRKS3_(ptr noundef nonnull align 8 dereferenceable(8) %0, ptr noundef %16, ptr noundef nonnull align 1 dereferenceable(1) %3) #25
  call void @_ZNSt7__cxx1112basic_stringIcSt11char_traitsIcESaIcEE12_M_constructIPKcEEvT_S8_St20forward_iterator_tag(ptr noundef nonnull align 8 dereferenceable(32) %0, ptr noundef nonnull @.str.48, ptr noundef nonnull @.str.48)
  call void @_ZNSaIcED1Ev(ptr noundef nonnull align 1 dereferenceable(1) %3) #25
  br label %17

17:                                               ; preds = %8, %15
  ret void
}